target datalayout = "e-m:e-p270:32:32-p271:32:32-p272:64:64-i64:64-i128:128-f80:128-n8:16:32:64-S128"
target triple = "x86_64-pc-linux-gnu"

%struct._xml_frame_t = type { i32, ptr, ptr, ptr, ptr, ptr, ptr, ptr, ptr, ptr, ptr, ptr, ptr, i32, i32, ptr, ptr }

; Function Attrs: nounwind null_pointer_is_valid sspstrong uwtable
define ptr @xml_get_cdata(ptr noundef %0) #0 {
  %2 = alloca ptr, align 8
  %3 = alloca ptr, align 8
  %4 = alloca ptr, align 8
  store ptr %0, ptr %2, align 8
  call void @llvm.lifetime.start.p0(i64 8, ptr %3) #10
  store ptr null, ptr %3, align 8
  call void @llvm.lifetime.start.p0(i64 8, ptr %4) #10
  %5 = load ptr, ptr %2, align 8
  %6 = getelementptr inbounds nuw %struct._xml_frame_t, ptr %5, i32 0, i32 2
  %7 = load ptr, ptr %6, align 8
  store ptr %7, ptr %4, align 8
  br label %8

8:                                                ; preds = %18, %1
  %9 = load ptr, ptr %4, align 8
  %10 = icmp ne ptr %9, null
  br i1 %10, label %11, label %22

11:                                               ; preds = %8
  %12 = load ptr, ptr %4, align 8
  %13 = getelementptr inbounds nuw %struct._xml_frame_t, ptr %12, i32 0, i32 0
  %14 = load i32, ptr %13, align 8
  %15 = icmp eq i32 %14, 5
  br i1 %15, label %16, label %18

16:                                               ; preds = %11
  %17 = load ptr, ptr %4, align 8
  store ptr %17, ptr %3, align 8
  br label %22

18:                                               ; preds = %11
  %19 = load ptr, ptr %4, align 8
  %20 = getelementptr inbounds nuw %struct._xml_frame_t, ptr %19, i32 0, i32 5
  %21 = load ptr, ptr %20, align 8
  store ptr %21, ptr %4, align 8
  br label %8, !llvm.loop !9

22:                                               ; preds = %16, %8
  %23 = load ptr, ptr %3, align 8
  call void @llvm.lifetime.end.p0(i64 8, ptr %4) #10
  call void @llvm.lifetime.end.p0(i64 8, ptr %3) #10
  ret ptr %23
}