; Function Attrs: nofree norecurse nosync nounwind null_pointer_is_valid sspstrong memory(read, inaccessiblemem: none) uwtable
define noundef ptr @xml_get_cdata(ptr noundef readonly captures(none) %0) local_unnamed_addr #3 {
  %2 = getelementptr inbounds nuw i8, ptr %0, i64 16
  %.07 = load ptr, ptr %2, align 8
  %.not8 = icmp eq ptr %.07, null
  br i1 %.not8, label %._crit_edge, label %.lr.ph

.lr.ph:                                           ; preds = %1, %5
  %.09 = phi ptr [ %.0, %5 ], [ %.07, %1 ]
  %3 = load i32, ptr %.09, align 8
  %4 = icmp eq i32 %3, 5
  br i1 %4, label %._crit_edge, label %5

5:                                                ; preds = %.lr.ph
  %6 = getelementptr inbounds nuw i8, ptr %.09, i64 40
  %.0 = load ptr, ptr %6, align 8
  %.not = icmp eq ptr %.0, null
  br i1 %.not, label %._crit_edge, label %.lr.ph, !llvm.loop !9

._crit_edge:                                      ; preds = %5, %.lr.ph, %1
  %.0.lcssa = phi ptr [ null, %1 ], [ %.09, %.lr.ph ], [ null, %5 ]
  ret ptr %.0.lcssa
}